(dp0
S'n_per_ex'
p1
I1
sS'min_breast_prop'
p2
F0.3
sS'target_size'
p3
(I1375
I750
tp4
sS'version'
p5
I0
sS'norm_sample_loc_method'
p6
S'rand'
p7
sS'ab_sample_loc_method'
p8
S'closest2mean'
p9
sS'patch_size'
p10
I256
sS'max_attempts'
p11
I5
s.